Certificate:
    Data:
        Version: 3 (0x2)
        Serial Number:
            ae:53:a2:43:b9:f9:fc:21:b9:f1:2c:e3:c3:b4:45:14
        Signature Algorithm: sha256WithRSAEncryption
        Issuer: CN=Sensu-test CA
        Validity
            Not Before: Nov  6 17:22:40 2019 GMT
            Not After : Oct 21 17:22:40 2022 GMT
        Subject: CN=etcd-peer
        Subject Public Key Info:
            Public Key Algorithm: rsaEncryption
                RSA Public-Key: (2048 bit)
                Modulus:
                    00:dd:2a:35:47:b2:6d:77:0d:d5:a2:16:50:20:97:
                    93:e9:f6:c4:01:04:b7:2a:62:04:52:01:68:5c:98:
                    f2:e5:82:f6:eb:9a:77:9b:ca:0a:9f:61:34:4d:f4:
                    b5:ae:e0:bd:8a:5d:79:03:b4:10:c3:ea:f3:8c:e2:
                    88:79:ff:68:2a:dd:d5:d1:d5:68:9a:61:2d:0b:49:
                    03:ae:fc:1b:26:a7:89:1f:fb:76:e2:81:81:72:bd:
                    42:c2:9e:60:d9:0d:2e:72:81:c3:11:c6:cd:63:64:
                    52:a9:5d:d5:85:c1:35:b0:93:2a:de:d3:46:2c:e4:
                    10:d5:7d:92:e9:3c:ff:f5:b4:7e:e2:fc:fd:6b:9e:
                    c1:a1:a0:c9:6c:31:ad:d2:42:09:55:9e:de:ee:37:
                    06:40:c7:61:da:c9:5e:d8:40:cb:3f:1f:7b:93:11:
                    c3:e5:5c:9d:e5:fc:77:67:92:de:c3:8a:3e:87:15:
                    dc:47:ad:34:17:84:b4:b2:21:8e:8f:2f:d8:3a:92:
                    99:4c:80:d7:06:77:5d:3c:66:db:53:15:ee:a5:5f:
                    12:29:19:07:30:a1:71:7b:d5:1f:ee:24:b3:9c:02:
                    6e:b6:42:cd:19:96:73:e3:c7:c4:20:c5:a4:75:b4:
                    b5:85:43:68:e4:91:5f:3d:fa:ed:0e:34:f1:fe:a9:
                    0c:a5
                Exponent: 65537 (0x10001)
        X509v3 extensions:
            X509v3 Basic Constraints:
                CA:FALSE
            X509v3 Subject Key Identifier:
                75:26:89:17:1C:ED:2A:53:BD:CE:87:EA:34:F5:C6:76:7C:C3:B5:08
            X509v3 Authority Key Identifier:
                keyid:65:6F:35:7D:11:0B:0B:FD:3B:CF:E6:3B:95:FA:35:6B:80:0D:27:E9
                DirName:/CN=Sensu-test CA
                serial:2D:E8:6C:6F:A5:0E:7D:63:A8:B1:0B:3D:86:1D:2E:D0:62:5F:21:47

            X509v3 Extended Key Usage:
                TLS Web Server Authentication
            X509v3 Key Usage:
                Digital Signature, Key Encipherment
            X509v3 Subject Alternative Name:
                IP Address:176.16.117.105
    Signature Algorithm: sha256WithRSAEncryption
         3a:39:39:8c:d5:9d:ca:88:0e:d3:c4:b2:e5:91:3b:b4:66:5e:
         a3:92:44:f4:b4:fa:20:b0:a7:ee:6d:69:f4:8e:51:db:7b:e8:
         50:b9:15:00:2a:20:17:4e:0d:bf:4a:62:56:3e:cf:be:33:f6:
         44:54:c9:5e:22:1a:7a:3f:40:74:77:ed:96:e9:09:9e:27:dd:
         0a:69:bb:d3:5b:b2:4e:95:08:00:71:c1:a6:a2:ed:b9:46:41:
         94:96:6a:10:57:d4:7a:c2:0d:ce:c3:14:0c:ff:ab:fe:6e:09:
         fd:18:09:32:d9:7c:f8:a4:dd:0c:fd:56:55:36:ae:03:fc:59:
         a3:c5:4b:6f:2e:be:5f:d7:cd:bd:7d:de:3d:29:1a:5b:78:85:
         7a:4c:59:f3:15:31:e6:93:9c:db:28:c8:10:86:6f:30:db:3f:
         59:29:b1:05:9f:9b:b5:2e:20:b2:b8:dc:2e:3b:c2:75:dc:bf:
         39:eb:db:d6:5c:f7:cc:b5:61:ea:a8:c0:45:89:5b:c2:1a:fa:
         ce:a7:69:63:4b:f6:3c:be:4c:f2:cf:2b:bf:5b:d4:f1:b8:e3:
         2a:e2:50:3a:62:e5:0d:42:fc:ac:63:b2:76:3d:c4:0a:26:70:
         60:16:ec:12:d7:60:04:10:bd:e7:9d:7c:3c:65:ab:25:51:f7:
         aa:6b:5e:b1
-----BEGIN CERTIFICATE-----
MIIDbTCCAlWgAwIBAgIRAK5TokO5+fwhufEs48O0RRQwDQYJKoZIhvcNAQELBQAw
GDEWMBQGA1UEAwwNU2Vuc3UtdGVzdCBDQTAeFw0xOTExMDYxNzIyNDBaFw0yMjEw
MjExNzIyNDBaMBQxEjAQBgNVBAMMCWV0Y2QtcGVlcjCCASIwDQYJKoZIhvcNAQEB
BQADggEPADCCAQoCggEBAN0qNUeybXcN1aIWUCCXk+n2xAEEtypiBFIBaFyY8uWC
9uuad5vKCp9hNE30ta7gvYpdeQO0EMPq84ziiHn/aCrd1dHVaJphLQtJA678Gyan
iR/7duKBgXK9QsKeYNkNLnKBwxHGzWNkUqld1YXBNbCTKt7TRizkENV9kuk8//W0
fuL8/WuewaGgyWwxrdJCCVWe3u43BkDHYdrJXthAyz8fe5MRw+VcneX8d2eS3sOK
PocV3EetNBeEtLIhjo8v2DqSmUyA1wZ3XTxm21MV7qVfEikZBzChcXvVH+4ks5wC
brZCzRmWc+PHxCDFpHW0tYVDaOSRXz367Q408f6pDKUCAwEAAaOBtTCBsjAJBgNV
HRMEAjAAMB0GA1UdDgQWBBR1JokXHO0qU73Oh+o09cZ2fMO1CDBTBgNVHSMETDBK
gBRlbzV9EQsL/TvP5juV+jVrgA0n6aEcpBowGDEWMBQGA1UEAwwNU2Vuc3UtdGVz
dCBDQYIULehsb6UOfWOosQs9hh0u0GJfIUcwEwYDVR0lBAwwCgYIKwYBBQUHAwEw
CwYDVR0PBAQDAgWgMA8GA1UdEQQIMAaHBLAQdWkwDQYJKoZIhvcNAQELBQADggEB
ADo5OYzVncqIDtPEsuWRO7RmXqOSRPS0+iCwp+5tafSOUdt76FC5FQAqIBdODb9K
YlY+z74z9kRUyV4iGno/QHR37ZbpCZ4n3Qppu9Nbsk6VCABxwaai7blGQZSWahBX
1HrCDc7DFAz/q/5uCf0YCTLZfPik3Qz9VlU2rgP8WaPFS28uvl/Xzb193j0pGlt4
hXpMWfMVMeaTnNsoyBCGbzDbP1kpsQWfm7UuILK43C47wnXcvznr29Zc98y1Yeqo
wEWJW8Ia+s6naWNL9jy+TPLPK79b1PG44yriUDpi5Q1C/KxjsnY9xAomcGAW7BLX
YAQQveedfDxlqyVR96prXrE=
-----END CERTIFICATE-----
