Certificate:
    Data:
        Version: 3 (0x2)
        Serial Number:
            9a:76:0c:19:84:14:e0:bf:39:06:f1:25:83:09:32:fc
        Signature Algorithm: sha256WithRSAEncryption
        Issuer: CN=Sensu-test CA
        Validity
            Not Before: Nov  6 17:22:42 2019 GMT
            Not After : Oct 21 17:22:42 2022 GMT
        Subject: CN=sensu-dashboard
        Subject Public Key Info:
            Public Key Algorithm: rsaEncryption
                RSA Public-Key: (2048 bit)
                Modulus:
                    00:b0:e0:10:ec:e6:50:88:db:f6:78:ba:21:a4:c4:
                    17:b5:f0:57:9b:54:da:4d:1f:75:d2:da:15:4f:17:
                    1f:d7:cd:15:0e:1e:39:7c:50:6a:32:11:11:9c:76:
                    01:77:8e:a4:07:49:55:49:8e:96:1a:c7:a5:90:3e:
                    69:4d:ec:a9:45:a3:07:05:89:7a:dd:a6:34:cb:29:
                    c8:36:71:ba:b6:ec:d8:20:60:58:5f:23:ca:61:78:
                    e1:ca:a5:6a:b6:ea:d9:dd:4f:ce:fb:2e:9c:9d:06:
                    eb:de:d9:be:58:d3:a8:da:2b:2d:4f:f9:7a:32:43:
                    52:68:60:41:e5:b7:65:c7:4d:ec:ae:56:99:b1:05:
                    66:5c:77:03:41:28:e1:b9:75:7f:67:3c:09:e7:d3:
                    4d:f2:77:51:74:2c:8b:82:ab:5f:97:ea:c0:f7:45:
                    e5:85:35:a2:5c:95:65:79:a1:dd:bd:bf:a6:e8:76:
                    ae:36:c7:36:7c:e7:d9:e8:57:65:e2:3f:ea:0b:8d:
                    16:61:3c:c9:3b:89:3d:a7:cf:5a:09:4c:f2:98:03:
                    fd:6d:d0:20:8c:12:4c:a3:38:af:53:71:75:54:30:
                    f9:e8:d3:44:4e:f2:fc:b8:ec:f9:49:ff:c8:bc:27:
                    00:b2:2c:c6:15:05:b4:5b:f7:ac:20:fc:df:b5:56:
                    26:e3
                Exponent: 65537 (0x10001)
        X509v3 extensions:
            X509v3 Basic Constraints:
                CA:FALSE
            X509v3 Subject Key Identifier:
                08:7A:07:19:64:FD:EA:87:C3:25:FE:65:E6:8B:A7:9E:E2:46:8C:A7
            X509v3 Authority Key Identifier:
                keyid:65:6F:35:7D:11:0B:0B:FD:3B:CF:E6:3B:95:FA:35:6B:80:0D:27:E9
                DirName:/CN=Sensu-test CA
                serial:2D:E8:6C:6F:A5:0E:7D:63:A8:B1:0B:3D:86:1D:2E:D0:62:5F:21:47

            X509v3 Extended Key Usage:
                TLS Web Server Authentication
            X509v3 Key Usage:
                Digital Signature, Key Encipherment
            X509v3 Subject Alternative Name:
                IP Address:176.16.117.105
    Signature Algorithm: sha256WithRSAEncryption
         47:ca:52:10:7a:01:5e:e3:0d:ae:e7:5e:a7:f8:19:d2:0e:0a:
         03:ef:9f:dc:2f:4f:94:05:15:ae:ee:66:6a:7c:41:cc:07:8f:
         75:09:8c:be:e6:ea:8c:1c:f2:d5:20:23:76:b1:cb:ec:da:1e:
         07:83:23:3b:ce:62:07:65:1f:49:26:f5:59:50:d0:2b:b2:5f:
         61:9d:6d:6b:1f:e4:8d:60:ae:c2:fd:02:40:38:4f:6c:d3:48:
         5c:ca:4e:ac:70:88:63:57:21:f8:47:57:be:d9:bb:ec:ce:e4:
         ac:be:81:f7:21:60:95:6d:56:b9:ce:93:8b:f5:3f:c9:de:77:
         3b:34:9a:73:d1:9a:99:ea:35:47:ef:fb:01:48:98:6d:f9:dd:
         d2:16:7e:f2:d5:17:d0:66:c7:b1:2b:55:18:80:f7:7d:5d:d3:
         1b:11:18:ef:1d:e4:35:a5:7d:25:a8:b3:cd:80:5c:7e:95:4d:
         9b:79:e1:b0:38:84:75:58:f1:45:4f:48:ed:8b:84:9b:a6:26:
         a0:f6:d1:f0:f7:f2:1c:e7:47:ee:b3:30:a9:61:82:4b:fc:d9:
         dc:45:ab:2c:f4:30:60:19:0e:92:cc:67:d8:3b:6e:26:80:fb:
         b3:3c:21:4e:66:45:fe:05:55:6a:88:04:74:85:ca:1a:75:70:
         38:0f:ca:d4
-----BEGIN CERTIFICATE-----
MIIDczCCAlugAwIBAgIRAJp2DBmEFOC/OQbxJYMJMvwwDQYJKoZIhvcNAQELBQAw
GDEWMBQGA1UEAwwNU2Vuc3UtdGVzdCBDQTAeFw0xOTExMDYxNzIyNDJaFw0yMjEw
MjExNzIyNDJaMBoxGDAWBgNVBAMMD3NlbnN1LWRhc2hib2FyZDCCASIwDQYJKoZI
hvcNAQEBBQADggEPADCCAQoCggEBALDgEOzmUIjb9ni6IaTEF7XwV5tU2k0fddLa
FU8XH9fNFQ4eOXxQajIREZx2AXeOpAdJVUmOlhrHpZA+aU3sqUWjBwWJet2mNMsp
yDZxurbs2CBgWF8jymF44cqlarbq2d1PzvsunJ0G697ZvljTqNorLU/5ejJDUmhg
QeW3ZcdN7K5WmbEFZlx3A0Eo4bl1f2c8CefTTfJ3UXQsi4KrX5fqwPdF5YU1olyV
ZXmh3b2/puh2rjbHNnzn2ehXZeI/6guNFmE8yTuJPafPWglM8pgD/W3QIIwSTKM4
r1NxdVQw+ejTRE7y/Ljs+Un/yLwnALIsxhUFtFv3rCD837VWJuMCAwEAAaOBtTCB
sjAJBgNVHRMEAjAAMB0GA1UdDgQWBBQIegcZZP3qh8Ml/mXmi6ee4kaMpzBTBgNV
HSMETDBKgBRlbzV9EQsL/TvP5juV+jVrgA0n6aEcpBowGDEWMBQGA1UEAwwNU2Vu
c3UtdGVzdCBDQYIULehsb6UOfWOosQs9hh0u0GJfIUcwEwYDVR0lBAwwCgYIKwYB
BQUHAwEwCwYDVR0PBAQDAgWgMA8GA1UdEQQIMAaHBLAQdWkwDQYJKoZIhvcNAQEL
BQADggEBAEfKUhB6AV7jDa7nXqf4GdIOCgPvn9wvT5QFFa7uZmp8QcwHj3UJjL7m
6owc8tUgI3axy+zaHgeDIzvOYgdlH0km9VlQ0CuyX2GdbWsf5I1grsL9AkA4T2zT
SFzKTqxwiGNXIfhHV77Zu+zO5Ky+gfchYJVtVrnOk4v1P8nedzs0mnPRmpnqNUfv
+wFImG353dIWfvLVF9Bmx7ErVRiA931d0xsRGO8d5DWlfSWos82AXH6VTZt54bA4
hHVY8UVPSO2LhJumJqD20fD38hznR+6zMKlhgkv82dxFqyz0MGAZDpLMZ9g7biaA
+7M8IU5mRf4FVWqIBHSFyhp1cDgPytQ=
-----END CERTIFICATE-----
